; Function Attrs: mustprogress uwtable
define internal noundef i32 @_ZL16SPUStringCompare8UElementS_(ptr nocapture readonly %left.coerce, ptr nocapture readonly %right.coerce) #2 {
entry:
  %0 = load ptr, ptr %left.coerce, align 8
  %fUnion.i.i = getelementptr inbounds i8, ptr %0, i64 8
  %1 = load i16, ptr %fUnion.i.i, align 8
  %cmp.i.i = icmp slt i16 %1, 0
  %2 = ashr i16 %1, 5
  %shr.i.i = sext i16 %2 to i32
  %fLength.i = getelementptr inbounds i8, ptr %0, i64 12
  %3 = load i32, ptr %fLength.i, align 4
  %cond.i = select i1 %cmp.i.i, i32 %3, i32 %shr.i.i
  %4 = load ptr, ptr %right.coerce, align 8
  %fUnion.i.i5 = getelementptr inbounds i8, ptr %4, i64 8
  %5 = load i16, ptr %fUnion.i.i5, align 8
  %cmp.i.i6 = icmp slt i16 %5, 0
  %6 = ashr i16 %5, 5
  %shr.i.i7 = sext i16 %6 to i32
  %fLength.i8 = getelementptr inbounds i8, ptr %4, i64 12
  %7 = load i32, ptr %fLength.i8, align 4
  %cond.i9 = select i1 %cmp.i.i6, i32 %7, i32 %shr.i.i7
  %cmp = icmp slt i32 %cond.i, %cond.i9
  br i1 %cmp, label %return, label %if.else

if.else:                                          ; preds = %entry
  %cmp6 = icmp sgt i32 %cond.i, %cond.i9
  br i1 %cmp6, label %return, label %if.else8

if.else8:                                         ; preds = %if.else
  %conv2.i10.i.i = and i16 %5, 1
  %tobool.not.i.i = icmp eq i16 %conv2.i10.i.i, 0
  br i1 %tobool.not.i.i, label %if.else.i.i, label %if.then.i.i

if.then.i.i:                                      ; preds = %if.else8
  %8 = trunc i16 %1 to i8
  %9 = and i8 %8, 1
  %conv.i.i = xor i8 %9, 1
  br label %_ZNK6icu_7513UnicodeString7compareERKS0_.exit

if.else.i.i:                                      ; preds = %if.else8
  %spec.select.i.i = tail call i32 @llvm.smin.i32(i32 %cond.i9, i32 0)
  %cmp5.i.i.i = icmp slt i32 %cond.i9, 0
  %sub.i.i.i = sub nsw i32 %cond.i9, %spec.select.i.i
  %spec.select9.i.i = tail call i32 @llvm.smin.i32(i32 %sub.i.i.i, i32 %cond.i9)
  %srcLength.addr.0.i.i = select i1 %cmp5.i.i.i, i32 0, i32 %spec.select9.i.i
  %10 = and i16 %5, 2
  %tobool.not.i.i.i = icmp eq i16 %10, 0
  %fBuffer.i.i.i = getelementptr inbounds i8, ptr %4, i64 10
  %fArray.i.i.i = getelementptr inbounds i8, ptr %4, i64 24
  %11 = load ptr, ptr %fArray.i.i.i, align 8
  %cond.i.i.i = select i1 %tobool.not.i.i.i, ptr %11, ptr %fBuffer.i.i.i
  %call5.i.i = tail call noundef signext i8 @_ZNK6icu_7513UnicodeString9doCompareEiiPKDsii(ptr noundef nonnull align 8 dereferenceable(64) %0, i32 noundef 0, i32 noundef %cond.i, ptr noundef %cond.i.i.i, i32 noundef %spec.select.i.i, i32 noundef %srcLength.addr.0.i.i)
  br label %_ZNK6icu_7513UnicodeString7compareERKS0_.exit

_ZNK6icu_7513UnicodeString7compareERKS0_.exit:    ; preds = %if.then.i.i, %if.else.i.i
  %retval.0.i.i = phi i8 [ %conv.i.i, %if.then.i.i ], [ %call5.i.i, %if.else.i.i ]
  %conv = sext i8 %retval.0.i.i to i32
  br label %return

return:                                           ; preds = %if.else, %entry, %_ZNK6icu_7513UnicodeString7compareERKS0_.exit
  %retval.0 = phi i32 [ %conv, %_ZNK6icu_7513UnicodeString7compareERKS0_.exit ], [ -1, %entry ], [ 1, %if.else ]
  ret i32 %retval.0
}